target datalayout = "e-m:e-p270:32:32-p271:32:32-p272:64:64-i64:64-i128:128-f80:128-n8:16:32:64-S128"
target triple = "x86_64-pc-linux-gnu"

%struct.GlobalContext = type { %struct.HTable, ptr, ptr, ptr, ptr, ptr, ptr, ptr, ptr, i8, i32, i32, i32, ptr, ptr, %struct.HTable, %struct.HTable, %struct.Module_, %struct.DeclTable, %struct.DeclTable, %struct.Path_, ptr, ptr, ptr, ptr, ptr, ptr, ptr, [65536 x ptr], ptr, ptr, ptr }
%struct.HTable = type { i32, ptr }
%struct.Module_ = type { ptr, ptr, ptr, i16, i32, ptr, %struct.HTable, ptr, ptr, ptr, ptr, ptr, ptr, ptr, ptr, ptr }
%struct.DeclTable = type { i32, i32, i32, ptr }
%struct.Path_ = type { %union.SourceSpan, ptr, i32 }
%union.SourceSpan = type { i64 }
%struct.ParseContext_ = type { %struct.TokenData, i32, %union.SourceSpan, %union.SourceSpan, ptr, %struct.Lexer }
%struct.TokenData = type { ptr, i64, %union.anon.86 }
%union.anon.86 = type { %struct.anon.89 }
%struct.anon.89 = type { %struct.Int128_, i8 }
%struct.Int128_ = type { i64, i64 }
%struct.Lexer = type { ptr, ptr, ptr, ptr, i32, i32, ptr, ptr, ptr, %struct.TokenData, %union.SourceSpan, i32, i32 }

@global_context = external global %struct.GlobalContext, align 8

; Function Attrs: nounwind uwtable
define dso_local zeroext i1 @parse_file(ptr noundef %0) #0 {
  %2 = alloca i1, align 1
  %3 = alloca ptr, align 8
  %4 = alloca ptr, align 8
  %5 = alloca %struct.ParseContext_, align 8
  %6 = alloca %struct.Lexer, align 8
  store ptr %0, ptr %3, align 8
  %7 = load ptr, ptr %3, align 8
  %8 = call ptr @unit_create(ptr noundef %7)
  store ptr %8, ptr %4, align 8
  call void @llvm.memset.p0.i64(ptr align 8 %5, i8 0, i64 192, i1 false)
  %9 = getelementptr inbounds %struct.ParseContext_, ptr %5, i32 0, i32 4
  %10 = load ptr, ptr %4, align 8
  store ptr %10, ptr %9, align 8
  %11 = getelementptr inbounds %struct.ParseContext_, ptr %5, i32 0, i32 5
  call void @llvm.memset.p0.i64(ptr align 8 %6, i8 0, i64 120, i1 false)
  %12 = getelementptr inbounds %struct.Lexer, ptr %6, i32 0, i32 0
  store ptr %5, ptr %12, align 8
  %13 = getelementptr inbounds %struct.Lexer, ptr %6, i32 0, i32 8
  %14 = load ptr, ptr %3, align 8
  store ptr %14, ptr %13, align 8
  call void @llvm.memcpy.p0.p0.i64(ptr align 8 %11, ptr align 8 %6, i64 120, i1 false)
  %15 = getelementptr inbounds %struct.ParseContext_, ptr %5, i32 0, i32 5
  call void @lexer_init(ptr noundef %15)
  %16 = load i32, ptr getelementptr inbounds (%struct.GlobalContext, ptr @global_context, i32 0, i32 10), align 4
  %17 = icmp ne i32 %16, 0
  br i1 %17, label %18, label %19

18:                                               ; preds = %1
  store i1 false, ptr %2, align 1
  br label %23

19:                                               ; preds = %1
  call void @parse_translation_unit(ptr noundef %5)
  %20 = load i32, ptr getelementptr inbounds (%struct.GlobalContext, ptr @global_context, i32 0, i32 10), align 4
  %21 = icmp ne i32 %20, 0
  %22 = xor i1 %21, true
  store i1 %22, ptr %2, align 1
  br label %23

23:                                               ; preds = %19, %18
  %24 = load i1, ptr %2, align 1
  ret i1 %24
}