; Function Attrs: nounwind uwtable
define dso_local zeroext i1 @parse_file(ptr noundef %0) local_unnamed_addr #0 {
  %2 = alloca %struct.ParseContext_, align 8
  %3 = tail call ptr @unit_create(ptr noundef %0) #10
  call void @llvm.memset.p0.i64(ptr noundef nonnull align 8 dereferenceable(192) %2, i8 0, i64 64, i1 false)
  %4 = getelementptr inbounds i8, ptr %2, i64 64
  store ptr %3, ptr %4, align 8
  %5 = getelementptr inbounds i8, ptr %2, i64 72
  %.sroa.3.0..sroa_idx = getelementptr inbounds i8, ptr %2, i64 80
  call void @llvm.memset.p0.i64(ptr noundef nonnull align 8 dereferenceable(48) %.sroa.3.0..sroa_idx, i8 0, i64 48, i1 false)
  %.sroa.4.0..sroa_idx = getelementptr inbounds i8, ptr %2, i64 136
  call void @llvm.memset.p0.i64(ptr noundef nonnull align 8 dereferenceable(56) %.sroa.4.0..sroa_idx, i8 0, i64 56, i1 false)
  store ptr %2, ptr %5, align 8
  %.sroa.31.0..sroa_idx = getelementptr inbounds i8, ptr %2, i64 128
  store ptr %0, ptr %.sroa.31.0..sroa_idx, align 8
  call void @lexer_init(ptr noundef nonnull %5) #10
  %6 = load i32, ptr getelementptr inbounds (%struct.GlobalContext, ptr @global_context, i64 0, i32 10), align 4
  %.not = icmp eq i32 %6, 0
  br i1 %.not, label %7, label %9

7:                                                ; preds = %1
  call fastcc void @parse_translation_unit(ptr noundef nonnull %2)
  %8 = load i32, ptr getelementptr inbounds (%struct.GlobalContext, ptr @global_context, i64 0, i32 10), align 4
  %.not5 = icmp eq i32 %8, 0
  br label %9

9:                                                ; preds = %1, %7
  %.0 = phi i1 [ %.not5, %7 ], [ false, %1 ]
  ret i1 %.0
}